; ModuleID = 'source-C-CXX/25/1071.c'
source_filename = "source-C-CXX/25/1071.c"
target datalayout = "e-m:e-p270:32:32-p271:32:32-p272:64:64-i64:64-f80:128-n8:16:32:64-S128"
target triple = "x86_64-pc-linux-gnu"

; Function Attrs: nounwind sspstrong uwtable
define dso_local i32 @main() local_unnamed_addr #0 {
  %1 = alloca [10000 x i8], align 16
  %2 = getelementptr inbounds [10000 x i8], [10000 x i8]* %1, i64 0, i64 0
  call void @llvm.lifetime.start.p0i8(i64 10000, i8* nonnull %2) #4
  %3 = call i32 (i8*, ...) bitcast (i32 (...)* @gets to i32 (i8*, ...)*)(i8* nonnull %2) #4
  %4 = load i8, i8* %2, align 16, !tbaa !5
  %5 = icmp eq i8 %4, 0
  br i1 %5, label %29, label %6

6:                                                ; preds = %0, %23
  %7 = phi i64 [ %25, %23 ], [ 0, %0 ]
  %8 = phi i8 [ %27, %23 ], [ %4, %0 ]
  %9 = phi i8* [ %26, %23 ], [ %2, %0 ]
  %10 = phi i32 [ %24, %23 ], [ 0, %0 ]
  %11 = icmp eq i32 %10, 0
  br i1 %11, label %17, label %12

12:                                               ; preds = %6
  %13 = icmp eq i8 %8, 32
  br i1 %13, label %23, label %14

14:                                               ; preds = %12
  %15 = sext i8 %8 to i32
  %16 = call i32 @putchar(i32 %15)
  br label %23

17:                                               ; preds = %6
  %18 = sext i8 %8 to i32
  %19 = call i32 @putchar(i32 %18)
  %20 = load i8, i8* %9, align 1, !tbaa !5
  %21 = icmp eq i8 %20, 32
  %22 = zext i1 %21 to i32
  br label %23

23:                                               ; preds = %17, %12, %14
  %24 = phi i32 [ 0, %14 ], [ 1, %12 ], [ %22, %17 ]
  %25 = add nuw i64 %7, 1
  %26 = getelementptr inbounds [10000 x i8], [10000 x i8]* %1, i64 0, i64 %25
  %27 = load i8, i8* %26, align 1, !tbaa !5
  %28 = icmp eq i8 %27, 0
  br i1 %28, label %29, label %6, !llvm.loop !8

29:                                               ; preds = %23, %0
  call void @llvm.lifetime.end.p0i8(i64 10000, i8* nonnull %2) #4
  ret i32 0
}

; Function Attrs: argmemonly mustprogress nofree nosync nounwind willreturn
declare void @llvm.lifetime.start.p0i8(i64 immarg, i8* nocapture) #1

declare i32 @gets(...) local_unnamed_addr #2

; Function Attrs: argmemonly mustprogress nofree nosync nounwind willreturn
declare void @llvm.lifetime.end.p0i8(i64 immarg, i8* nocapture) #1

; Function Attrs: nofree nounwind
declare noundef i32 @putchar(i32 noundef) local_unnamed_addr #3


!llvm.module.flags = !{!0, !1, !2, !3}
!llvm.ident = !{!4}

!0 = !{i32 1, !"wchar_size", i32 4}
!1 = !{i32 7, !"PIC Level", i32 2}
!2 = !{i32 7, !"PIE Level", i32 2}
!3 = !{i32 7, !"uwtable", i32 1}
!4 = !{!"clang version 13.0.0"}
!5 = !{!6, !6, i64 0}
!6 = !{!"omnipotent char", !7, i64 0}
!7 = !{!"Simple C/C++ TBAA"}
!8 = distinct !{!8, !9}
!9 = !{!"llvm.loop.mustprogress"}
